target datalayout = "e-m:e-p270:32:32-p271:32:32-p272:64:64-i64:64-i128:128-f80:128-n8:16:32:64-S128"
target triple = "x86_64-pc-linux-gnu"

@.str = private unnamed_addr constant [5 x i8] c"none\00", align 1
@.str.1 = private unnamed_addr constant [5 x i8] c"root\00", align 1
@.str.2 = private unnamed_addr constant [7 x i8] c"static\00", align 1
@.str.3 = private unnamed_addr constant [15 x i8] c"subexpr_simple\00", align 1
@.str.4 = private unnamed_addr constant [19 x i8] c"subexpr_staticeval\00", align 1
@.str.5 = private unnamed_addr constant [8 x i8] c"subexpr\00", align 1
@.str.6 = private unnamed_addr constant [11 x i8] c"ref_simple\00", align 1
@.str.7 = private unnamed_addr constant [4 x i8] c"ref\00", align 1
@.str.8 = private unnamed_addr constant [7 x i8] c"method\00", align 1
@.str.9 = private unnamed_addr constant [4 x i8] c"mod\00", align 1
@.str.10 = private unnamed_addr constant [4 x i8] c"not\00", align 1
@.str.11 = private unnamed_addr constant [4 x i8] c"and\00", align 1
@.str.12 = private unnamed_addr constant [3 x i8] c"or\00", align 1
@.str.13 = private unnamed_addr constant [11 x i8] c"arithmetic\00", align 1
@.str.14 = private unnamed_addr constant [3 x i8] c"%p\00", align 1

; Function Attrs: mustprogress nounwind uwtable
define void @_Z28_gmx_sel_print_evalfunc_nameP8_IO_FILEPFvP18gmx_sel_evaluate_tRKSt10shared_ptrIN3gmx20SelectionTreeElementEEP15gmx_ana_index_tE(ptr noundef %0, ptr noundef %1) #0 {
  %3 = alloca ptr, align 8
  %4 = alloca ptr, align 8
  store ptr %0, ptr %3, align 8
  store ptr %1, ptr %4, align 8
  %5 = load ptr, ptr %4, align 8
  %6 = icmp ne ptr %5, null
  br i1 %6, label %10, label %7

7:                                                ; preds = %2
  %8 = load ptr, ptr %3, align 8
  %9 = call i32 (ptr, ptr, ...) @fprintf(ptr noundef %8, ptr noundef @.str) #9
  br label %105

10:                                               ; preds = %2
  %11 = load ptr, ptr %4, align 8
  %12 = icmp eq ptr %11, @_Z22_gmx_sel_evaluate_rootP18gmx_sel_evaluate_tRKSt10shared_ptrIN3gmx20SelectionTreeElementEEP15gmx_ana_index_t
  br i1 %12, label %13, label %16

13:                                               ; preds = %10
  %14 = load ptr, ptr %3, align 8
  %15 = call i32 (ptr, ptr, ...) @fprintf(ptr noundef %14, ptr noundef @.str.1) #9
  br label %104

16:                                               ; preds = %10
  %17 = load ptr, ptr %4, align 8
  %18 = icmp eq ptr %17, @_Z24_gmx_sel_evaluate_staticP18gmx_sel_evaluate_tRKSt10shared_ptrIN3gmx20SelectionTreeElementEEP15gmx_ana_index_t
  br i1 %18, label %19, label %22

19:                                               ; preds = %16
  %20 = load ptr, ptr %3, align 8
  %21 = call i32 (ptr, ptr, ...) @fprintf(ptr noundef %20, ptr noundef @.str.2) #9
  br label %103

22:                                               ; preds = %16
  %23 = load ptr, ptr %4, align 8
  %24 = icmp eq ptr %23, @_Z32_gmx_sel_evaluate_subexpr_simpleP18gmx_sel_evaluate_tRKSt10shared_ptrIN3gmx20SelectionTreeElementEEP15gmx_ana_index_t
  br i1 %24, label %25, label %28

25:                                               ; preds = %22
  %26 = load ptr, ptr %3, align 8
  %27 = call i32 (ptr, ptr, ...) @fprintf(ptr noundef %26, ptr noundef @.str.3) #9
  br label %102

28:                                               ; preds = %22
  %29 = load ptr, ptr %4, align 8
  %30 = icmp eq ptr %29, @_Z36_gmx_sel_evaluate_subexpr_staticevalP18gmx_sel_evaluate_tRKSt10shared_ptrIN3gmx20SelectionTreeElementEEP15gmx_ana_index_t
  br i1 %30, label %31, label %34

31:                                               ; preds = %28
  %32 = load ptr, ptr %3, align 8
  %33 = call i32 (ptr, ptr, ...) @fprintf(ptr noundef %32, ptr noundef @.str.4) #9
  br label %101

34:                                               ; preds = %28
  %35 = load ptr, ptr %4, align 8
  %36 = icmp eq ptr %35, @_Z25_gmx_sel_evaluate_subexprP18gmx_sel_evaluate_tRKSt10shared_ptrIN3gmx20SelectionTreeElementEEP15gmx_ana_index_t
  br i1 %36, label %37, label %40

37:                                               ; preds = %34
  %38 = load ptr, ptr %3, align 8
  %39 = call i32 (ptr, ptr, ...) @fprintf(ptr noundef %38, ptr noundef @.str.5) #9
  br label %100

40:                                               ; preds = %34
  %41 = load ptr, ptr %4, align 8
  %42 = icmp eq ptr %41, @_Z35_gmx_sel_evaluate_subexprref_simpleP18gmx_sel_evaluate_tRKSt10shared_ptrIN3gmx20SelectionTreeElementEEP15gmx_ana_index_t
  br i1 %42, label %43, label %46

43:                                               ; preds = %40
  %44 = load ptr, ptr %3, align 8
  %45 = call i32 (ptr, ptr, ...) @fprintf(ptr noundef %44, ptr noundef @.str.6) #9
  br label %99

46:                                               ; preds = %40
  %47 = load ptr, ptr %4, align 8
  %48 = icmp eq ptr %47, @_Z28_gmx_sel_evaluate_subexprrefP18gmx_sel_evaluate_tRKSt10shared_ptrIN3gmx20SelectionTreeElementEEP15gmx_ana_index_t
  br i1 %48, label %49, label %52

49:                                               ; preds = %46
  %50 = load ptr, ptr %3, align 8
  %51 = call i32 (ptr, ptr, ...) @fprintf(ptr noundef %50, ptr noundef @.str.7) #9
  br label %98

52:                                               ; preds = %46
  %53 = load ptr, ptr %4, align 8
  %54 = icmp eq ptr %53, @_Z24_gmx_sel_evaluate_methodP18gmx_sel_evaluate_tRKSt10shared_ptrIN3gmx20SelectionTreeElementEEP15gmx_ana_index_t
  br i1 %54, label %55, label %58

55:                                               ; preds = %52
  %56 = load ptr, ptr %3, align 8
  %57 = call i32 (ptr, ptr, ...) @fprintf(ptr noundef %56, ptr noundef @.str.8) #9
  br label %97

58:                                               ; preds = %52
  %59 = load ptr, ptr %4, align 8
  %60 = icmp eq ptr %59, @_Z26_gmx_sel_evaluate_modifierP18gmx_sel_evaluate_tRKSt10shared_ptrIN3gmx20SelectionTreeElementEEP15gmx_ana_index_t
  br i1 %60, label %61, label %64

61:                                               ; preds = %58
  %62 = load ptr, ptr %3, align 8
  %63 = call i32 (ptr, ptr, ...) @fprintf(ptr noundef %62, ptr noundef @.str.9) #9
  br label %96

64:                                               ; preds = %58
  %65 = load ptr, ptr %4, align 8
  %66 = icmp eq ptr %65, @_Z21_gmx_sel_evaluate_notP18gmx_sel_evaluate_tRKSt10shared_ptrIN3gmx20SelectionTreeElementEEP15gmx_ana_index_t
  br i1 %66, label %67, label %70

67:                                               ; preds = %64
  %68 = load ptr, ptr %3, align 8
  %69 = call i32 (ptr, ptr, ...) @fprintf(ptr noundef %68, ptr noundef @.str.10) #9
  br label %95

70:                                               ; preds = %64
  %71 = load ptr, ptr %4, align 8
  %72 = icmp eq ptr %71, @_Z21_gmx_sel_evaluate_andP18gmx_sel_evaluate_tRKSt10shared_ptrIN3gmx20SelectionTreeElementEEP15gmx_ana_index_t
  br i1 %72, label %73, label %76

73:                                               ; preds = %70
  %74 = load ptr, ptr %3, align 8
  %75 = call i32 (ptr, ptr, ...) @fprintf(ptr noundef %74, ptr noundef @.str.11) #9
  br label %94

76:                                               ; preds = %70
  %77 = load ptr, ptr %4, align 8
  %78 = icmp eq ptr %77, @_Z20_gmx_sel_evaluate_orP18gmx_sel_evaluate_tRKSt10shared_ptrIN3gmx20SelectionTreeElementEEP15gmx_ana_index_t
  br i1 %78, label %79, label %82

79:                                               ; preds = %76
  %80 = load ptr, ptr %3, align 8
  %81 = call i32 (ptr, ptr, ...) @fprintf(ptr noundef %80, ptr noundef @.str.12) #9
  br label %93

82:                                               ; preds = %76
  %83 = load ptr, ptr %4, align 8
  %84 = icmp eq ptr %83, @_Z28_gmx_sel_evaluate_arithmeticP18gmx_sel_evaluate_tRKSt10shared_ptrIN3gmx20SelectionTreeElementEEP15gmx_ana_index_t
  br i1 %84, label %85, label %88

85:                                               ; preds = %82
  %86 = load ptr, ptr %3, align 8
  %87 = call i32 (ptr, ptr, ...) @fprintf(ptr noundef %86, ptr noundef @.str.13) #9
  br label %92

88:                                               ; preds = %82
  %89 = load ptr, ptr %3, align 8
  %90 = load ptr, ptr %4, align 8
  %91 = call i32 (ptr, ptr, ...) @fprintf(ptr noundef %89, ptr noundef @.str.14, ptr noundef %90) #9
  br label %92

92:                                               ; preds = %88, %85
  br label %93

93:                                               ; preds = %92, %79
  br label %94

94:                                               ; preds = %93, %73
  br label %95

95:                                               ; preds = %94, %67
  br label %96

96:                                               ; preds = %95, %61
  br label %97

97:                                               ; preds = %96, %55
  br label %98

98:                                               ; preds = %97, %49
  br label %99

99:                                               ; preds = %98, %43
  br label %100

100:                                              ; preds = %99, %37
  br label %101

101:                                              ; preds = %100, %31
  br label %102

102:                                              ; preds = %101, %25
  br label %103

103:                                              ; preds = %102, %19
  br label %104

104:                                              ; preds = %103, %13
  br label %105

105:                                              ; preds = %104, %7
  ret void
}