; Function Attrs: mustprogress nofree nounwind uwtable
define void @_Z28_gmx_sel_print_evalfunc_nameP8_IO_FILEPFvP18gmx_sel_evaluate_tRKSt10shared_ptrIN3gmx20SelectionTreeElementEEP15gmx_ana_index_tE(ptr nocapture noundef %0, ptr noundef %1) local_unnamed_addr #0 {
  %.not = icmp eq ptr %1, null
  br i1 %.not, label %3, label %5

3:                                                ; preds = %2
  %4 = tail call i64 @fwrite(ptr nonnull @.str, i64 4, i64 1, ptr %0)
  br label %59

5:                                                ; preds = %2
  %6 = icmp eq ptr %1, @_Z22_gmx_sel_evaluate_rootP18gmx_sel_evaluate_tRKSt10shared_ptrIN3gmx20SelectionTreeElementEEP15gmx_ana_index_t
  br i1 %6, label %7, label %9

7:                                                ; preds = %5
  %8 = tail call i64 @fwrite(ptr nonnull @.str.1, i64 4, i64 1, ptr %0)
  br label %59

9:                                                ; preds = %5
  %10 = icmp eq ptr %1, @_Z24_gmx_sel_evaluate_staticP18gmx_sel_evaluate_tRKSt10shared_ptrIN3gmx20SelectionTreeElementEEP15gmx_ana_index_t
  br i1 %10, label %11, label %13

11:                                               ; preds = %9
  %12 = tail call i64 @fwrite(ptr nonnull @.str.2, i64 6, i64 1, ptr %0)
  br label %59

13:                                               ; preds = %9
  %14 = icmp eq ptr %1, @_Z32_gmx_sel_evaluate_subexpr_simpleP18gmx_sel_evaluate_tRKSt10shared_ptrIN3gmx20SelectionTreeElementEEP15gmx_ana_index_t
  br i1 %14, label %15, label %17

15:                                               ; preds = %13
  %16 = tail call i64 @fwrite(ptr nonnull @.str.3, i64 14, i64 1, ptr %0)
  br label %59

17:                                               ; preds = %13
  %18 = icmp eq ptr %1, @_Z36_gmx_sel_evaluate_subexpr_staticevalP18gmx_sel_evaluate_tRKSt10shared_ptrIN3gmx20SelectionTreeElementEEP15gmx_ana_index_t
  br i1 %18, label %19, label %21

19:                                               ; preds = %17
  %20 = tail call i64 @fwrite(ptr nonnull @.str.4, i64 18, i64 1, ptr %0)
  br label %59

21:                                               ; preds = %17
  %22 = icmp eq ptr %1, @_Z25_gmx_sel_evaluate_subexprP18gmx_sel_evaluate_tRKSt10shared_ptrIN3gmx20SelectionTreeElementEEP15gmx_ana_index_t
  br i1 %22, label %23, label %25

23:                                               ; preds = %21
  %24 = tail call i64 @fwrite(ptr nonnull @.str.5, i64 7, i64 1, ptr %0)
  br label %59

25:                                               ; preds = %21
  %26 = icmp eq ptr %1, @_Z35_gmx_sel_evaluate_subexprref_simpleP18gmx_sel_evaluate_tRKSt10shared_ptrIN3gmx20SelectionTreeElementEEP15gmx_ana_index_t
  br i1 %26, label %27, label %29

27:                                               ; preds = %25
  %28 = tail call i64 @fwrite(ptr nonnull @.str.6, i64 10, i64 1, ptr %0)
  br label %59

29:                                               ; preds = %25
  %30 = icmp eq ptr %1, @_Z28_gmx_sel_evaluate_subexprrefP18gmx_sel_evaluate_tRKSt10shared_ptrIN3gmx20SelectionTreeElementEEP15gmx_ana_index_t
  br i1 %30, label %31, label %33

31:                                               ; preds = %29
  %32 = tail call i64 @fwrite(ptr nonnull @.str.7, i64 3, i64 1, ptr %0)
  br label %59

33:                                               ; preds = %29
  %34 = icmp eq ptr %1, @_Z24_gmx_sel_evaluate_methodP18gmx_sel_evaluate_tRKSt10shared_ptrIN3gmx20SelectionTreeElementEEP15gmx_ana_index_t
  br i1 %34, label %35, label %37

35:                                               ; preds = %33
  %36 = tail call i64 @fwrite(ptr nonnull @.str.8, i64 6, i64 1, ptr %0)
  br label %59

37:                                               ; preds = %33
  %38 = icmp eq ptr %1, @_Z26_gmx_sel_evaluate_modifierP18gmx_sel_evaluate_tRKSt10shared_ptrIN3gmx20SelectionTreeElementEEP15gmx_ana_index_t
  br i1 %38, label %39, label %41

39:                                               ; preds = %37
  %40 = tail call i64 @fwrite(ptr nonnull @.str.9, i64 3, i64 1, ptr %0)
  br label %59

41:                                               ; preds = %37
  %42 = icmp eq ptr %1, @_Z21_gmx_sel_evaluate_notP18gmx_sel_evaluate_tRKSt10shared_ptrIN3gmx20SelectionTreeElementEEP15gmx_ana_index_t
  br i1 %42, label %43, label %45

43:                                               ; preds = %41
  %44 = tail call i64 @fwrite(ptr nonnull @.str.10, i64 3, i64 1, ptr %0)
  br label %59

45:                                               ; preds = %41
  %46 = icmp eq ptr %1, @_Z21_gmx_sel_evaluate_andP18gmx_sel_evaluate_tRKSt10shared_ptrIN3gmx20SelectionTreeElementEEP15gmx_ana_index_t
  br i1 %46, label %47, label %49

47:                                               ; preds = %45
  %48 = tail call i64 @fwrite(ptr nonnull @.str.11, i64 3, i64 1, ptr %0)
  br label %59

49:                                               ; preds = %45
  %50 = icmp eq ptr %1, @_Z20_gmx_sel_evaluate_orP18gmx_sel_evaluate_tRKSt10shared_ptrIN3gmx20SelectionTreeElementEEP15gmx_ana_index_t
  br i1 %50, label %51, label %53

51:                                               ; preds = %49
  %52 = tail call i64 @fwrite(ptr nonnull @.str.12, i64 2, i64 1, ptr %0)
  br label %59

53:                                               ; preds = %49
  %54 = icmp eq ptr %1, @_Z28_gmx_sel_evaluate_arithmeticP18gmx_sel_evaluate_tRKSt10shared_ptrIN3gmx20SelectionTreeElementEEP15gmx_ana_index_t
  br i1 %54, label %55, label %57

55:                                               ; preds = %53
  %56 = tail call i64 @fwrite(ptr nonnull @.str.13, i64 10, i64 1, ptr %0)
  br label %59

57:                                               ; preds = %53
  %58 = tail call i32 (ptr, ptr, ...) @fprintf(ptr noundef %0, ptr noundef nonnull @.str.14, ptr noundef nonnull %1) #18
  br label %59

59:                                               ; preds = %7, %15, %23, %31, %39, %47, %55, %57, %51, %43, %35, %27, %19, %11, %3
  ret void
}